target datalayout = "e-m:e-p270:32:32-p271:32:32-p272:64:64-i64:64-i128:128-f80:128-n8:16:32:64-S128"
target triple = "x86_64-pc-linux-gnu"

%struct._object = type { %union.anon, ptr }
%union.anon = type { i64 }
%struct._ts = type { ptr, ptr, ptr, i64, %struct.anon, i32, i32, i32, i32, i32, i32, i32, i32, ptr, ptr, ptr, ptr, ptr, ptr, ptr, ptr, i32, ptr, i64, i64, ptr, i64, i32, ptr, ptr, ptr, i64, i64, ptr, ptr, ptr, %struct._err_stackitem, ptr, i64, ptr, ptr }
%struct.anon = type { i32 }
%struct._err_stackitem = type { ptr, ptr }
%struct.anon.0 = type { i32, i32 }

@_Py_NoneStruct = external global %struct._object, align 8

; Function Attrs: alwaysinline nounwind uwtable
define internal i32 @_Py_IsImmortal(ptr noundef %0) #3 {
  %2 = alloca ptr, align 8
  store ptr %0, ptr %2, align 8, !tbaa !9
  %3 = load ptr, ptr %2, align 8, !tbaa !9
  %4 = getelementptr inbounds nuw %struct._object, ptr %3, i32 0, i32 0
  %5 = getelementptr inbounds nuw %struct.anon.0, ptr %4, i32 0, i32 0
  %6 = load i32, ptr %5, align 8, !tbaa !36
  %7 = icmp slt i32 %6, 0
  %8 = zext i1 %7 to i32
  ret i32 %8
}

; Function Attrs: alwaysinline nounwind uwtable
define internal void @Py_DECREF(ptr noundef %0) #3 {
  %2 = alloca ptr, align 8
  store ptr %0, ptr %2, align 8, !tbaa !9
  %3 = load ptr, ptr %2, align 8, !tbaa !9
  %4 = call i32 @_Py_IsImmortal(ptr noundef %3)
  %5 = icmp ne i32 %4, 0
  br i1 %5, label %6, label %7

6:                                                ; preds = %1
  br label %16

7:                                                ; preds = %1
  %8 = load ptr, ptr %2, align 8, !tbaa !9
  %9 = getelementptr inbounds nuw %struct._object, ptr %8, i32 0, i32 0
  %10 = getelementptr inbounds nuw %struct.anon.0, ptr %9, i32 0, i32 0
  %11 = load i32, ptr %10, align 8, !tbaa !36
  %12 = add i32 %11, -1
  store i32 %12, ptr %10, align 8, !tbaa !36
  %13 = icmp eq i32 %12, 0
  br i1 %13, label %14, label %16

14:                                               ; preds = %7
  %15 = load ptr, ptr %2, align 8, !tbaa !9
  call void @_Py_Dealloc(ptr noundef %15)
  br label %16

16:                                               ; preds = %6, %14, %7
  ret void
}

; Function Attrs: alwaysinline nounwind uwtable
define internal void @Py_INCREF(ptr noundef %0) #3 {
  %2 = alloca ptr, align 8
  %3 = alloca i32, align 4
  %4 = alloca i32, align 4
  store ptr %0, ptr %2, align 8, !tbaa !9
  call void @llvm.lifetime.start.p0(i64 4, ptr %3) #13
  %5 = load ptr, ptr %2, align 8, !tbaa !9
  %6 = getelementptr inbounds nuw %struct._object, ptr %5, i32 0, i32 0
  %7 = getelementptr inbounds nuw %struct.anon.0, ptr %6, i32 0, i32 0
  %8 = load i32, ptr %7, align 8, !tbaa !36
  store i32 %8, ptr %3, align 4, !tbaa !45
  %9 = load i32, ptr %3, align 4, !tbaa !45
  %10 = icmp slt i32 %9, 0
  br i1 %10, label %11, label %12

11:                                               ; preds = %1
  store i32 1, ptr %4, align 4
  br label %18

12:                                               ; preds = %1
  %13 = load i32, ptr %3, align 4, !tbaa !45
  %14 = add i32 %13, 1
  %15 = load ptr, ptr %2, align 8, !tbaa !9
  %16 = getelementptr inbounds nuw %struct._object, ptr %15, i32 0, i32 0
  %17 = getelementptr inbounds nuw %struct.anon.0, ptr %16, i32 0, i32 0
  store i32 %14, ptr %17, align 8, !tbaa !36
  store i32 0, ptr %4, align 4
  br label %18

18:                                               ; preds = %12, %11
  call void @llvm.lifetime.end.p0(i64 4, ptr %3) #13
  %19 = load i32, ptr %4, align 4
  switch i32 %19, label %21 [
    i32 0, label %20
    i32 1, label %20
  ]

20:                                               ; preds = %18, %18
  ret void

21:                                               ; preds = %18
  unreachable
}

; Function Attrs: inlinehint nounwind uwtable
define internal void @Py_XDECREF(ptr noundef %0) #2 {
  %2 = alloca ptr, align 8
  store ptr %0, ptr %2, align 8, !tbaa !9
  %3 = load ptr, ptr %2, align 8, !tbaa !9
  %4 = icmp ne ptr %3, null
  br i1 %4, label %5, label %7

5:                                                ; preds = %1
  %6 = load ptr, ptr %2, align 8, !tbaa !9
  call void @Py_DECREF(ptr noundef %6)
  br label %7

7:                                                ; preds = %5, %1
  ret void
}

; Function Attrs: inlinehint nounwind uwtable
define internal void @Py_XINCREF(ptr noundef %0) #2 {
  %2 = alloca ptr, align 8
  store ptr %0, ptr %2, align 8, !tbaa !9
  %3 = load ptr, ptr %2, align 8, !tbaa !9
  %4 = icmp ne ptr %3, null
  br i1 %4, label %5, label %7

5:                                                ; preds = %1
  %6 = load ptr, ptr %2, align 8, !tbaa !9
  call void @Py_INCREF(ptr noundef %6)
  br label %7

7:                                                ; preds = %5, %1
  ret void
}

; Function Attrs: inlinehint nounwind uwtable
define internal ptr @_Py_TYPE(ptr noundef %0) #2 {
  %2 = alloca ptr, align 8
  store ptr %0, ptr %2, align 8, !tbaa !9
  %3 = load ptr, ptr %2, align 8, !tbaa !9
  %4 = getelementptr inbounds nuw %struct._object, ptr %3, i32 0, i32 1
  %5 = load ptr, ptr %4, align 8, !tbaa !26
  ret ptr %5
}

; Function Attrs: nounwind uwtable
define internal ptr @get_exc_traceback(ptr noundef %0) #0 {
  %2 = alloca ptr, align 8
  %3 = alloca ptr, align 8
  %4 = alloca ptr, align 8
  store ptr %0, ptr %3, align 8, !tbaa !9
  %5 = load ptr, ptr %3, align 8, !tbaa !9
  %6 = icmp eq ptr %5, null
  br i1 %6, label %10, label %7

7:                                                ; preds = %1
  %8 = load ptr, ptr %3, align 8, !tbaa !9
  %9 = icmp eq ptr %8, @_Py_NoneStruct
  br i1 %9, label %10, label %11

10:                                               ; preds = %7, %1
  store ptr @_Py_NoneStruct, ptr %2, align 8
  br label %22

11:                                               ; preds = %7
  call void @llvm.lifetime.start.p0(i64 8, ptr %4) #13
  %12 = load ptr, ptr %3, align 8, !tbaa !9
  %13 = call ptr @PyException_GetTraceback(ptr noundef %12)
  store ptr %13, ptr %4, align 8, !tbaa !9
  %14 = load ptr, ptr %4, align 8, !tbaa !9
  call void @Py_XDECREF(ptr noundef %14)
  %15 = load ptr, ptr %4, align 8, !tbaa !9
  %16 = icmp ne ptr %15, null
  br i1 %16, label %17, label %19

17:                                               ; preds = %11
  %18 = load ptr, ptr %4, align 8, !tbaa !9
  br label %20

19:                                               ; preds = %11
  br label %20

20:                                               ; preds = %19, %17
  %21 = phi ptr [ %18, %17 ], [ @_Py_NoneStruct, %19 ]
  store ptr %21, ptr %2, align 8
  call void @llvm.lifetime.end.p0(i64 8, ptr %4) #13
  br label %22

22:                                               ; preds = %20, %10
  %23 = load ptr, ptr %2, align 8
  ret ptr %23
}

; Function Attrs: inlinehint nounwind uwtable
define internal ptr @_Py_XNewRef(ptr noundef %0) #2 {
  %2 = alloca ptr, align 8
  store ptr %0, ptr %2, align 8, !tbaa !9
  %3 = load ptr, ptr %2, align 8, !tbaa !9
  call void @Py_XINCREF(ptr noundef %3)
  %4 = load ptr, ptr %2, align 8, !tbaa !9
  ret ptr %4
}

; Function Attrs: nounwind uwtable
define internal ptr @get_exc_type(ptr noundef %0) #0 {
  %2 = alloca ptr, align 8
  %3 = alloca ptr, align 8
  %4 = alloca ptr, align 8
  store ptr %0, ptr %3, align 8, !tbaa !9
  %5 = load ptr, ptr %3, align 8, !tbaa !9
  %6 = icmp eq ptr %5, null
  br i1 %6, label %10, label %7

7:                                                ; preds = %1
  %8 = load ptr, ptr %3, align 8, !tbaa !9
  %9 = icmp eq ptr %8, @_Py_NoneStruct
  br i1 %9, label %10, label %11

10:                                               ; preds = %7, %1
  store ptr @_Py_NoneStruct, ptr %2, align 8
  br label %15

11:                                               ; preds = %7
  call void @llvm.lifetime.start.p0(i64 8, ptr %4) #13
  %12 = load ptr, ptr %3, align 8, !tbaa !9
  %13 = call ptr @_Py_TYPE(ptr noundef %12)
  store ptr %13, ptr %4, align 8, !tbaa !9
  %14 = load ptr, ptr %4, align 8, !tbaa !9
  store ptr %14, ptr %2, align 8
  call void @llvm.lifetime.end.p0(i64 8, ptr %4) #13
  br label %15

15:                                               ; preds = %11, %10
  %16 = load ptr, ptr %2, align 8
  ret ptr %16
}

; Function Attrs: nounwind uwtable
define hidden ptr @_PyErr_GetTopmostException(ptr noundef %0) #0 {
  %2 = alloca ptr, align 8
  %3 = alloca ptr, align 8
  store ptr %0, ptr %2, align 8, !tbaa !4
  call void @llvm.lifetime.start.p0(i64 8, ptr %3) #13
  %4 = load ptr, ptr %2, align 8, !tbaa !4
  %5 = getelementptr inbounds nuw %struct._ts, ptr %4, i32 0, i32 19
  %6 = load ptr, ptr %5, align 8, !tbaa !39
  store ptr %6, ptr %3, align 8, !tbaa !40
  br label %7

7:                                                ; preds = %19, %1
  %8 = load ptr, ptr %3, align 8, !tbaa !40
  %9 = getelementptr inbounds nuw %struct._err_stackitem, ptr %8, i32 0, i32 0
  %10 = load ptr, ptr %9, align 8, !tbaa !41
  %11 = icmp eq ptr %10, null
  br i1 %11, label %12, label %17

12:                                               ; preds = %7
  %13 = load ptr, ptr %3, align 8, !tbaa !40
  %14 = getelementptr inbounds nuw %struct._err_stackitem, ptr %13, i32 0, i32 1
  %15 = load ptr, ptr %14, align 8, !tbaa !42
  %16 = icmp ne ptr %15, null
  br label %17

17:                                               ; preds = %12, %7
  %18 = phi i1 [ false, %7 ], [ %16, %12 ]
  br i1 %18, label %19, label %23

19:                                               ; preds = %17
  %20 = load ptr, ptr %3, align 8, !tbaa !40
  %21 = getelementptr inbounds nuw %struct._err_stackitem, ptr %20, i32 0, i32 1
  %22 = load ptr, ptr %21, align 8, !tbaa !42
  store ptr %22, ptr %3, align 8, !tbaa !40
  br label %7, !llvm.loop !43

23:                                               ; preds = %17
  %24 = load ptr, ptr %3, align 8, !tbaa !40
  call void @llvm.lifetime.end.p0(i64 8, ptr %3) #13
  ret ptr %24
}

; Function Attrs: nounwind uwtable
define hidden void @_PyErr_GetExcInfo(ptr noundef %0, ptr noundef %1, ptr noundef %2, ptr noundef %3) #0 {
  %5 = alloca ptr, align 8
  %6 = alloca ptr, align 8
  %7 = alloca ptr, align 8
  %8 = alloca ptr, align 8
  %9 = alloca ptr, align 8
  store ptr %0, ptr %5, align 8, !tbaa !4
  store ptr %1, ptr %6, align 8, !tbaa !35
  store ptr %2, ptr %7, align 8, !tbaa !35
  store ptr %3, ptr %8, align 8, !tbaa !35
  call void @llvm.lifetime.start.p0(i64 8, ptr %9) #13
  %10 = load ptr, ptr %5, align 8, !tbaa !4
  %11 = call ptr @_PyErr_GetTopmostException(ptr noundef %10)
  store ptr %11, ptr %9, align 8, !tbaa !40
  %12 = load ptr, ptr %9, align 8, !tbaa !40
  %13 = getelementptr inbounds nuw %struct._err_stackitem, ptr %12, i32 0, i32 0
  %14 = load ptr, ptr %13, align 8, !tbaa !41
  %15 = call ptr @get_exc_type(ptr noundef %14)
  %16 = call ptr @_Py_XNewRef(ptr noundef %15)
  %17 = load ptr, ptr %6, align 8, !tbaa !35
  store ptr %16, ptr %17, align 8, !tbaa !9
  %18 = load ptr, ptr %9, align 8, !tbaa !40
  %19 = getelementptr inbounds nuw %struct._err_stackitem, ptr %18, i32 0, i32 0
  %20 = load ptr, ptr %19, align 8, !tbaa !41
  %21 = call ptr @_Py_XNewRef(ptr noundef %20)
  %22 = load ptr, ptr %7, align 8, !tbaa !35
  store ptr %21, ptr %22, align 8, !tbaa !9
  %23 = load ptr, ptr %9, align 8, !tbaa !40
  %24 = getelementptr inbounds nuw %struct._err_stackitem, ptr %23, i32 0, i32 0
  %25 = load ptr, ptr %24, align 8, !tbaa !41
  %26 = call ptr @get_exc_traceback(ptr noundef %25)
  %27 = call ptr @_Py_XNewRef(ptr noundef %26)
  %28 = load ptr, ptr %8, align 8, !tbaa !35
  store ptr %27, ptr %28, align 8, !tbaa !9
  call void @llvm.lifetime.end.p0(i64 8, ptr %9) #13
  ret void
}