; Function Attrs: nounwind uwtable
define hidden void @_PyErr_GetExcInfo(ptr noundef readonly captures(none) %0, ptr noundef writeonly captures(none) %1, ptr noundef writeonly captures(none) %2, ptr noundef writeonly captures(none) %3) local_unnamed_addr #0 {
  %5 = getelementptr inbounds nuw i8, ptr %0, i64 120
  %6 = load ptr, ptr %5, align 8, !tbaa !38
  br label %7

7:                                                ; preds = %10, %4
  %.0.i = phi ptr [ %6, %4 ], [ %12, %10 ]
  %8 = load ptr, ptr %.0.i, align 8, !tbaa !39
  %9 = icmp eq ptr %8, null
  br i1 %9, label %10, label %_PyErr_GetTopmostException.exit

10:                                               ; preds = %7
  %11 = getelementptr inbounds nuw i8, ptr %.0.i, i64 8
  %12 = load ptr, ptr %11, align 8, !tbaa !40
  %.not.i = icmp eq ptr %12, null
  br i1 %.not.i, label %get_exc_type.exit.thread, label %7, !llvm.loop !41

_PyErr_GetTopmostException.exit:                  ; preds = %7
  %13 = icmp eq ptr %8, @_Py_NoneStruct
  br i1 %13, label %get_exc_type.exit.thread, label %get_exc_type.exit

get_exc_type.exit:                                ; preds = %_PyErr_GetTopmostException.exit
  %14 = getelementptr i8, ptr %8, i64 8
  %.val.i = load ptr, ptr %14, align 8, !tbaa !21
  %.not.i.i = icmp eq ptr %.val.i, null
  br i1 %.not.i.i, label %_Py_XNewRef.exit, label %get_exc_type.exit.thread

get_exc_type.exit.thread:                         ; preds = %10, %_PyErr_GetTopmostException.exit, %get_exc_type.exit
  %.0.i718 = phi ptr [ %.val.i, %get_exc_type.exit ], [ @_Py_NoneStruct, %_PyErr_GetTopmostException.exit ], [ @_Py_NoneStruct, %10 ]
  %15 = load i32, ptr %.0.i718, align 8, !tbaa !20
  %16 = icmp slt i32 %15, 0
  br i1 %16, label %_Py_XNewRef.exit, label %17

17:                                               ; preds = %get_exc_type.exit.thread
  %18 = add nuw i32 %15, 1
  store i32 %18, ptr %.0.i718, align 8, !tbaa !20
  br label %_Py_XNewRef.exit

_Py_XNewRef.exit:                                 ; preds = %get_exc_type.exit, %get_exc_type.exit.thread, %17
  %.0.i719 = phi ptr [ null, %get_exc_type.exit ], [ %.0.i718, %get_exc_type.exit.thread ], [ %.0.i718, %17 ]
  store ptr %.0.i719, ptr %1, align 8, !tbaa !24
  %19 = load ptr, ptr %.0.i, align 8, !tbaa !39
  %.not.i.i8 = icmp eq ptr %19, null
  br i1 %.not.i.i8, label %_Py_XNewRef.exit9, label %20

20:                                               ; preds = %_Py_XNewRef.exit
  %21 = load i32, ptr %19, align 8, !tbaa !20
  %22 = icmp slt i32 %21, 0
  br i1 %22, label %_Py_XNewRef.exit9, label %23

23:                                               ; preds = %20
  %24 = add nuw i32 %21, 1
  store i32 %24, ptr %19, align 8, !tbaa !20
  br label %_Py_XNewRef.exit9

_Py_XNewRef.exit9:                                ; preds = %_Py_XNewRef.exit, %20, %23
  store ptr %19, ptr %2, align 8, !tbaa !24
  %25 = load ptr, ptr %.0.i, align 8, !tbaa !39
  %26 = icmp eq ptr %25, null
  %27 = icmp eq ptr %25, @_Py_NoneStruct
  %or.cond.i10 = or i1 %26, %27
  br i1 %or.cond.i10, label %get_exc_traceback.exitthread-pre-split, label %28

28:                                               ; preds = %_Py_XNewRef.exit9
  %29 = tail call ptr @PyException_GetTraceback(ptr noundef nonnull %25) #17
  %.not.i.i11 = icmp eq ptr %29, null
  br i1 %.not.i.i11, label %get_exc_traceback.exitthread-pre-split, label %30

30:                                               ; preds = %28
  %31 = load i32, ptr %29, align 8, !tbaa !20
  %.not.i.i.i = icmp sgt i32 %31, -1
  br i1 %.not.i.i.i, label %32, label %_Py_XNewRef.exit14

32:                                               ; preds = %30
  %33 = add nsw i32 %31, -1
  store i32 %33, ptr %29, align 8, !tbaa !20
  %34 = icmp eq i32 %33, 0
  br i1 %34, label %35, label %get_exc_traceback.exit

35:                                               ; preds = %32
  tail call void @_Py_Dealloc(ptr noundef nonnull %29) #17
  br label %get_exc_traceback.exitthread-pre-split

get_exc_traceback.exitthread-pre-split:           ; preds = %_Py_XNewRef.exit9, %28, %35
  %.0.i12.ph = phi ptr [ %29, %35 ], [ @_Py_NoneStruct, %28 ], [ @_Py_NoneStruct, %_Py_XNewRef.exit9 ]
  %.pr = load i32, ptr %.0.i12.ph, align 8, !tbaa !20
  br label %get_exc_traceback.exit

get_exc_traceback.exit:                           ; preds = %get_exc_traceback.exitthread-pre-split, %32
  %36 = phi i32 [ %.pr, %get_exc_traceback.exitthread-pre-split ], [ %33, %32 ]
  %.0.i12 = phi ptr [ %.0.i12.ph, %get_exc_traceback.exitthread-pre-split ], [ %29, %32 ]
  %37 = icmp slt i32 %36, 0
  br i1 %37, label %_Py_XNewRef.exit14, label %38

38:                                               ; preds = %get_exc_traceback.exit
  %39 = add nuw i32 %36, 1
  store i32 %39, ptr %.0.i12, align 8, !tbaa !20
  br label %_Py_XNewRef.exit14

_Py_XNewRef.exit14:                               ; preds = %30, %get_exc_traceback.exit, %38
  %.0.i1221 = phi ptr [ %.0.i12, %get_exc_traceback.exit ], [ %.0.i12, %38 ], [ %29, %30 ]
  store ptr %.0.i1221, ptr %3, align 8, !tbaa !24
  ret void
}